target datalayout = "e-m:e-p270:32:32-p271:32:32-p272:64:64-i64:64-i128:128-f80:128-n8:16:32:64-S128"
target triple = "x86_64-pc-linux-gnu"

%struct.SDL_DisplayMode = type { i32, i32, i32, i32, float, float, i32, i32, ptr }
%struct._XRRScreenResources = type { i64, i64, i32, ptr, i32, ptr, i32, ptr }
%struct._XRRModeInfo = type { i64, i32, i32, i64, i32, i32, i32, i32, i32, i32, i32, ptr, i32, i64 }
%struct._XRRCrtcInfo = type { i64, i32, i32, i32, i32, i64, i16, i32, ptr, i16, i32, ptr }
%struct._XRRCrtcTransformAttributes = type { %struct._XTransform, ptr, i32, ptr, %struct._XTransform, ptr, i32, ptr }
%struct._XTransform = type { [3 x [3 x i32]] }
%struct.SDL_DisplayModeData = type { i64 }

@X11_XFree = external global ptr, align 8
@X11_XRRGetCrtcInfo = external global ptr, align 8
@X11_XRRFreeCrtcInfo = external global ptr, align 8
@X11_XRRGetCrtcTransform = external global ptr, align 8

; Function Attrs: nounwind uwtable
define internal void @CalculateXRandRRefreshRate(ptr noundef %0, ptr noundef %1, ptr noundef %2) #0 {
  %4 = alloca ptr, align 8
  %5 = alloca ptr, align 8
  %6 = alloca ptr, align 8
  %7 = alloca i32, align 4
  store ptr %0, ptr %4, align 8
  store ptr %1, ptr %5, align 8
  store ptr %2, ptr %6, align 8
  call void @llvm.lifetime.start.p0(i64 4, ptr %7) #6
  %8 = load ptr, ptr %4, align 8
  %9 = getelementptr inbounds nuw %struct._XRRModeInfo, ptr %8, i32 0, i32 10
  %10 = load i32, ptr %9, align 8
  store i32 %10, ptr %7, align 4
  %11 = load ptr, ptr %4, align 8
  %12 = getelementptr inbounds nuw %struct._XRRModeInfo, ptr %11, i32 0, i32 13
  %13 = load i64, ptr %12, align 8
  %14 = and i64 %13, 32
  %15 = icmp ne i64 %14, 0
  br i1 %15, label %16, label %19

16:                                               ; preds = %3
  %17 = load i32, ptr %7, align 4
  %18 = mul i32 %17, 2
  store i32 %18, ptr %7, align 4
  br label %19

19:                                               ; preds = %16, %3
  %20 = load ptr, ptr %4, align 8
  %21 = getelementptr inbounds nuw %struct._XRRModeInfo, ptr %20, i32 0, i32 13
  %22 = load i64, ptr %21, align 8
  %23 = and i64 %22, 16
  %24 = icmp ne i64 %23, 0
  br i1 %24, label %25, label %28

25:                                               ; preds = %19
  %26 = load i32, ptr %7, align 4
  %27 = udiv i32 %26, 2
  store i32 %27, ptr %7, align 4
  br label %28

28:                                               ; preds = %25, %19
  %29 = load ptr, ptr %4, align 8
  %30 = getelementptr inbounds nuw %struct._XRRModeInfo, ptr %29, i32 0, i32 6
  %31 = load i32, ptr %30, align 8
  %32 = icmp ne i32 %31, 0
  br i1 %32, label %33, label %48

33:                                               ; preds = %28
  %34 = load i32, ptr %7, align 4
  %35 = icmp ne i32 %34, 0
  br i1 %35, label %36, label %48

36:                                               ; preds = %33
  %37 = load ptr, ptr %4, align 8
  %38 = getelementptr inbounds nuw %struct._XRRModeInfo, ptr %37, i32 0, i32 3
  %39 = load i64, ptr %38, align 8
  %40 = trunc i64 %39 to i32
  %41 = load ptr, ptr %5, align 8
  store i32 %40, ptr %41, align 4
  %42 = load ptr, ptr %4, align 8
  %43 = getelementptr inbounds nuw %struct._XRRModeInfo, ptr %42, i32 0, i32 6
  %44 = load i32, ptr %43, align 8
  %45 = load i32, ptr %7, align 4
  %46 = mul i32 %44, %45
  %47 = load ptr, ptr %6, align 8
  store i32 %46, ptr %47, align 4
  br label %51

48:                                               ; preds = %33, %28
  %49 = load ptr, ptr %5, align 8
  store i32 0, ptr %49, align 4
  %50 = load ptr, ptr %6, align 8
  store i32 0, ptr %50, align 4
  br label %51

51:                                               ; preds = %48, %36
  call void @llvm.lifetime.end.p0(i64 4, ptr %7) #6
  ret void
}

; Function Attrs: nounwind uwtable
define internal zeroext i1 @SetXRandRModeInfo(ptr noundef %0, ptr noundef %1, i64 noundef %2, i64 noundef %3, ptr noundef %4) #0 {
  %6 = alloca i1, align 1
  %7 = alloca ptr, align 8
  %8 = alloca ptr, align 8
  %9 = alloca i64, align 8
  %10 = alloca i64, align 8
  %11 = alloca ptr, align 8
  %12 = alloca i32, align 4
  %13 = alloca ptr, align 8
  %14 = alloca ptr, align 8
  %15 = alloca i16, align 2
  %16 = alloca i32, align 4
  %17 = alloca i32, align 4
  %18 = alloca ptr, align 8
  %19 = alloca i32, align 4
  store ptr %0, ptr %7, align 8
  store ptr %1, ptr %8, align 8
  store i64 %2, ptr %9, align 8
  store i64 %3, ptr %10, align 8
  store ptr %4, ptr %11, align 8
  call void @llvm.lifetime.start.p0(i64 4, ptr %12) #6
  store i32 0, ptr %12, align 4
  br label %20

20:                                               ; preds = %135, %5
  %21 = load i32, ptr %12, align 4
  %22 = load ptr, ptr %8, align 8
  %23 = getelementptr inbounds nuw %struct._XRRScreenResources, ptr %22, i32 0, i32 6
  %24 = load i32, ptr %23, align 8
  %25 = icmp slt i32 %21, %24
  br i1 %25, label %26, label %138

26:                                               ; preds = %20
  call void @llvm.lifetime.start.p0(i64 8, ptr %13) #6
  %27 = load ptr, ptr %8, align 8
  %28 = getelementptr inbounds nuw %struct._XRRScreenResources, ptr %27, i32 0, i32 7
  %29 = load ptr, ptr %28, align 8
  %30 = load i32, ptr %12, align 4
  %31 = sext i32 %30 to i64
  %32 = getelementptr inbounds %struct._XRRModeInfo, ptr %29, i64 %31
  store ptr %32, ptr %13, align 8
  %33 = load ptr, ptr %13, align 8
  %34 = getelementptr inbounds nuw %struct._XRRModeInfo, ptr %33, i32 0, i32 0
  %35 = load i64, ptr %34, align 8
  %36 = load i64, ptr %10, align 8
  %37 = icmp eq i64 %35, %36
  br i1 %37, label %38, label %131

38:                                               ; preds = %26
  call void @llvm.lifetime.start.p0(i64 8, ptr %14) #6
  call void @llvm.lifetime.start.p0(i64 2, ptr %15) #6
  store i16 0, ptr %15, align 2
  call void @llvm.lifetime.start.p0(i64 4, ptr %16) #6
  store i32 65536, ptr %16, align 4
  call void @llvm.lifetime.start.p0(i64 4, ptr %17) #6
  store i32 65536, ptr %17, align 4
  call void @llvm.lifetime.start.p0(i64 8, ptr %18) #6
  %39 = load ptr, ptr @X11_XRRGetCrtcInfo, align 8
  %40 = load ptr, ptr %7, align 8
  %41 = load ptr, ptr %8, align 8
  %42 = load i64, ptr %9, align 8
  %43 = call ptr %39(ptr noundef %40, ptr noundef %41, i64 noundef %42)
  store ptr %43, ptr %14, align 8
  %44 = load ptr, ptr %14, align 8
  %45 = icmp ne ptr %44, null
  br i1 %45, label %46, label %52

46:                                               ; preds = %38
  %47 = load ptr, ptr %14, align 8
  %48 = getelementptr inbounds nuw %struct._XRRCrtcInfo, ptr %47, i32 0, i32 6
  %49 = load i16, ptr %48, align 8
  store i16 %49, ptr %15, align 2
  %50 = load ptr, ptr @X11_XRRFreeCrtcInfo, align 8
  %51 = load ptr, ptr %14, align 8
  call void %50(ptr noundef %51)
  br label %52

52:                                               ; preds = %46, %38
  %53 = load ptr, ptr @X11_XRRGetCrtcTransform, align 8
  %54 = load ptr, ptr %7, align 8
  %55 = load i64, ptr %9, align 8
  %56 = call i32 %53(ptr noundef %54, i64 noundef %55, ptr noundef %18)
  %57 = icmp ne i32 %56, 0
  br i1 %57, label %58, label %77

58:                                               ; preds = %52
  %59 = load ptr, ptr %18, align 8
  %60 = icmp ne ptr %59, null
  br i1 %60, label %61, label %77

61:                                               ; preds = %58
  %62 = load ptr, ptr %18, align 8
  %63 = getelementptr inbounds nuw %struct._XRRCrtcTransformAttributes, ptr %62, i32 0, i32 4
  %64 = getelementptr inbounds nuw %struct._XTransform, ptr %63, i32 0, i32 0
  %65 = getelementptr inbounds [3 x [3 x i32]], ptr %64, i64 0, i64 0
  %66 = getelementptr inbounds [3 x i32], ptr %65, i64 0, i64 0
  %67 = load i32, ptr %66, align 8
  store i32 %67, ptr %16, align 4
  %68 = load ptr, ptr %18, align 8
  %69 = getelementptr inbounds nuw %struct._XRRCrtcTransformAttributes, ptr %68, i32 0, i32 4
  %70 = getelementptr inbounds nuw %struct._XTransform, ptr %69, i32 0, i32 0
  %71 = getelementptr inbounds [3 x [3 x i32]], ptr %70, i64 0, i64 1
  %72 = getelementptr inbounds [3 x i32], ptr %71, i64 0, i64 1
  %73 = load i32, ptr %72, align 4
  store i32 %73, ptr %17, align 4
  %74 = load ptr, ptr @X11_XFree, align 8
  %75 = load ptr, ptr %18, align 8
  %76 = call i32 %74(ptr noundef %75)
  br label %77

77:                                               ; preds = %61, %58, %52
  %78 = load i16, ptr %15, align 2
  %79 = zext i16 %78 to i32
  %80 = and i32 %79, 10
  %81 = icmp ne i32 %80, 0
  br i1 %81, label %82, label %101

82:                                               ; preds = %77
  %83 = load ptr, ptr %13, align 8
  %84 = getelementptr inbounds nuw %struct._XRRModeInfo, ptr %83, i32 0, i32 2
  %85 = load i32, ptr %84, align 4
  %86 = load i32, ptr %16, align 4
  %87 = mul i32 %85, %86
  %88 = add i32 %87, 65535
  %89 = lshr i32 %88, 16
  %90 = load ptr, ptr %11, align 8
  %91 = getelementptr inbounds nuw %struct.SDL_DisplayMode, ptr %90, i32 0, i32 2
  store i32 %89, ptr %91, align 8
  %92 = load ptr, ptr %13, align 8
  %93 = getelementptr inbounds nuw %struct._XRRModeInfo, ptr %92, i32 0, i32 1
  %94 = load i32, ptr %93, align 8
  %95 = load i32, ptr %17, align 4
  %96 = mul i32 %94, %95
  %97 = add i32 %96, 65535
  %98 = lshr i32 %97, 16
  %99 = load ptr, ptr %11, align 8
  %100 = getelementptr inbounds nuw %struct.SDL_DisplayMode, ptr %99, i32 0, i32 3
  store i32 %98, ptr %100, align 4
  br label %120

101:                                              ; preds = %77
  %102 = load ptr, ptr %13, align 8
  %103 = getelementptr inbounds nuw %struct._XRRModeInfo, ptr %102, i32 0, i32 1
  %104 = load i32, ptr %103, align 8
  %105 = load i32, ptr %16, align 4
  %106 = mul i32 %104, %105
  %107 = add i32 %106, 65535
  %108 = lshr i32 %107, 16
  %109 = load ptr, ptr %11, align 8
  %110 = getelementptr inbounds nuw %struct.SDL_DisplayMode, ptr %109, i32 0, i32 2
  store i32 %108, ptr %110, align 8
  %111 = load ptr, ptr %13, align 8
  %112 = getelementptr inbounds nuw %struct._XRRModeInfo, ptr %111, i32 0, i32 2
  %113 = load i32, ptr %112, align 4
  %114 = load i32, ptr %17, align 4
  %115 = mul i32 %113, %114
  %116 = add i32 %115, 65535
  %117 = lshr i32 %116, 16
  %118 = load ptr, ptr %11, align 8
  %119 = getelementptr inbounds nuw %struct.SDL_DisplayMode, ptr %118, i32 0, i32 3
  store i32 %117, ptr %119, align 4
  br label %120

120:                                              ; preds = %101, %82
  %121 = load ptr, ptr %13, align 8
  %122 = load ptr, ptr %11, align 8
  %123 = getelementptr inbounds nuw %struct.SDL_DisplayMode, ptr %122, i32 0, i32 6
  %124 = load ptr, ptr %11, align 8
  %125 = getelementptr inbounds nuw %struct.SDL_DisplayMode, ptr %124, i32 0, i32 7
  call void @CalculateXRandRRefreshRate(ptr noundef %121, ptr noundef %123, ptr noundef %125)
  %126 = load i64, ptr %10, align 8
  %127 = load ptr, ptr %11, align 8
  %128 = getelementptr inbounds nuw %struct.SDL_DisplayMode, ptr %127, i32 0, i32 8
  %129 = load ptr, ptr %128, align 8
  %130 = getelementptr inbounds nuw %struct.SDL_DisplayModeData, ptr %129, i32 0, i32 0
  store i64 %126, ptr %130, align 8
  store i1 true, ptr %6, align 1
  store i32 1, ptr %19, align 4
  call void @llvm.lifetime.end.p0(i64 8, ptr %18) #6
  call void @llvm.lifetime.end.p0(i64 4, ptr %17) #6
  call void @llvm.lifetime.end.p0(i64 4, ptr %16) #6
  call void @llvm.lifetime.end.p0(i64 2, ptr %15) #6
  call void @llvm.lifetime.end.p0(i64 8, ptr %14) #6
  br label %132

131:                                              ; preds = %26
  store i32 0, ptr %19, align 4
  br label %132

132:                                              ; preds = %131, %120
  call void @llvm.lifetime.end.p0(i64 8, ptr %13) #6
  %133 = load i32, ptr %19, align 4
  switch i32 %133, label %139 [
    i32 0, label %134
  ]

134:                                              ; preds = %132
  br label %135

135:                                              ; preds = %134
  %136 = load i32, ptr %12, align 4
  %137 = add nsw i32 %136, 1
  store i32 %137, ptr %12, align 4
  br label %20, !llvm.loop !13

138:                                              ; preds = %20
  store i1 false, ptr %6, align 1
  store i32 1, ptr %19, align 4
  br label %139

139:                                              ; preds = %138, %132
  call void @llvm.lifetime.end.p0(i64 4, ptr %12) #6
  %140 = load i1, ptr %6, align 1
  ret i1 %140
}