; Function Attrs: nounwind uwtable
define internal fastcc noundef zeroext i1 @SetXRandRModeInfo(ptr noundef %0, ptr noundef nonnull %1, i64 noundef %2, i64 noundef %3, ptr noundef nonnull captures(none) %4) unnamed_addr #0 {
  %6 = alloca ptr, align 8
  %7 = getelementptr inbounds nuw i8, ptr %1, i64 48
  %8 = load i32, ptr %7, align 8
  %9 = icmp sgt i32 %8, 0
  br i1 %9, label %.critedge.lr.ph, label %.loopexit

.critedge.lr.ph:                                  ; preds = %5
  %10 = getelementptr inbounds nuw i8, ptr %1, i64 56
  %11 = load ptr, ptr %10, align 8
  %wide.trip.count = zext nneg i32 %8 to i64
  br label %.critedge

12:                                               ; preds = %.critedge
  %indvars.iv.next = add nuw nsw i64 %indvars.iv, 1
  %exitcond.not = icmp eq i64 %indvars.iv.next, %wide.trip.count
  br i1 %exitcond.not, label %.loopexit, label %.critedge, !llvm.loop !23

.critedge:                                        ; preds = %.critedge.lr.ph, %12
  %indvars.iv = phi i64 [ 0, %.critedge.lr.ph ], [ %indvars.iv.next, %12 ]
  %13 = getelementptr inbounds nuw %struct._XRRModeInfo, ptr %11, i64 %indvars.iv
  %14 = load i64, ptr %13, align 8
  %.not44 = icmp eq i64 %14, %3
  br i1 %.not44, label %15, label %12

15:                                               ; preds = %.critedge
  call void @llvm.lifetime.start.p0(i64 8, ptr nonnull %6) #8
  %16 = load ptr, ptr @X11_XRRGetCrtcInfo, align 8
  %17 = tail call ptr %16(ptr noundef %0, ptr noundef nonnull %1, i64 noundef %2) #8
  %.not = icmp eq ptr %17, null
  br i1 %.not, label %24, label %18

18:                                               ; preds = %15
  %19 = getelementptr inbounds nuw i8, ptr %17, i64 32
  %20 = load i16, ptr %19, align 8
  %21 = load ptr, ptr @X11_XRRFreeCrtcInfo, align 8
  tail call void %21(ptr noundef nonnull %17) #8
  %22 = and i16 %20, 10
  %23 = icmp eq i16 %22, 0
  br label %24

24:                                               ; preds = %18, %15
  %.037 = phi i1 [ %23, %18 ], [ true, %15 ]
  %25 = load ptr, ptr @X11_XRRGetCrtcTransform, align 8
  %26 = call i32 %25(ptr noundef %0, i64 noundef %2, ptr noundef nonnull %6) #8
  %27 = icmp ne i32 %26, 0
  %28 = load ptr, ptr %6, align 8
  %29 = icmp ne ptr %28, null
  %or.cond = select i1 %27, i1 %29, i1 false
  br i1 %or.cond, label %30, label %37

30:                                               ; preds = %24
  %31 = getelementptr inbounds nuw i8, ptr %28, i64 64
  %32 = load i32, ptr %31, align 8
  %33 = getelementptr inbounds nuw i8, ptr %28, i64 80
  %34 = load i32, ptr %33, align 4
  %35 = load ptr, ptr @X11_XFree, align 8
  %36 = call i32 %35(ptr noundef nonnull %28) #8
  br label %37

37:                                               ; preds = %30, %24
  %.036 = phi i32 [ %32, %30 ], [ 65536, %24 ]
  %.035 = phi i32 [ %34, %30 ], [ 65536, %24 ]
  %38 = getelementptr inbounds nuw i8, ptr %4, i64 8
  %. = select i1 %.037, i64 8, i64 12
  %.58 = select i1 %.037, i64 12, i64 8
  %39 = getelementptr inbounds nuw i8, ptr %13, i64 %.
  %.sink55 = load i32, ptr %39, align 4
  %40 = mul i32 %.sink55, %.036
  %41 = add i32 %40, 65535
  %42 = lshr i32 %41, 16
  store i32 %42, ptr %38, align 8
  %43 = getelementptr inbounds nuw i8, ptr %13, i64 %.58
  %.pn = load i32, ptr %43, align 4
  %.sink.in.in = mul i32 %.pn, %.035
  %.sink.in = add i32 %.sink.in.in, 65535
  %.sink = lshr i32 %.sink.in, 16
  %44 = getelementptr inbounds nuw i8, ptr %4, i64 12
  store i32 %.sink, ptr %44, align 4
  %45 = getelementptr inbounds nuw i8, ptr %4, i64 24
  %46 = getelementptr inbounds nuw i8, ptr %4, i64 28
  %47 = getelementptr inbounds nuw i8, ptr %13, i64 48
  %48 = load i32, ptr %47, align 8
  %49 = getelementptr inbounds nuw i8, ptr %13, i64 72
  %50 = load i64, ptr %49, align 8
  %51 = trunc i64 %50 to i32
  %52 = lshr i32 %51, 5
  %53 = and i32 %52, 1
  %spec.select.i = shl i32 %48, %53
  %54 = lshr i32 %51, 4
  %55 = and i32 %54, 1
  %.1.i = lshr i32 %spec.select.i, %55
  %56 = getelementptr inbounds nuw i8, ptr %13, i64 32
  %57 = load i32, ptr %56, align 8
  %58 = icmp ne i32 %57, 0
  %59 = icmp ne i32 %.1.i, 0
  %or.cond.i = select i1 %58, i1 %59, i1 false
  br i1 %or.cond.i, label %60, label %66

60:                                               ; preds = %37
  %61 = getelementptr inbounds nuw i8, ptr %13, i64 16
  %62 = load i64, ptr %61, align 8
  %63 = trunc i64 %62 to i32
  store i32 %63, ptr %45, align 4
  %64 = load i32, ptr %56, align 8
  %65 = mul i32 %64, %.1.i
  br label %CalculateXRandRRefreshRate.exit

66:                                               ; preds = %37
  store i32 0, ptr %45, align 4
  br label %CalculateXRandRRefreshRate.exit

CalculateXRandRRefreshRate.exit:                  ; preds = %60, %66
  %storemerge.i = phi i32 [ 0, %66 ], [ %65, %60 ]
  store i32 %storemerge.i, ptr %46, align 4
  %67 = getelementptr inbounds nuw i8, ptr %4, i64 32
  %68 = load ptr, ptr %67, align 8
  store i64 %3, ptr %68, align 8
  call void @llvm.lifetime.end.p0(i64 8, ptr nonnull %6) #8
  br label %.loopexit

.loopexit:                                        ; preds = %12, %5, %CalculateXRandRRefreshRate.exit
  %69 = phi i1 [ true, %CalculateXRandRRefreshRate.exit ], [ false, %5 ], [ false, %12 ]
  ret i1 %69
}